Certificate:
    Data:
        Version: 3 (0x2)
        Serial Number: 1 (0x1)
        Signature Algorithm: sha1WithRSAEncryption
        Issuer: C=PT, ST=Lisboa, L=Lisboa, O=Sz CA, OU=Sz CA
        Validity
            Not Before: Jan 15 21:26:18 2021 GMT
            Not After : Jan 15 21:26:18 2022 GMT
        Subject: C=PT, ST=Lisboa, O=Oats In The Water, CN=localhost
        Subject Public Key Info:
            Public Key Algorithm: rsaEncryption
                RSA Public-Key: (4096 bit)
                Modulus:
                    00:fd:3f:4f:ad:37:fe:e2:c7:39:35:c8:15:77:bb:
                    31:7a:d1:24:2d:1b:fc:dc:dc:7a:43:62:16:e4:12:
                    1c:2e:83:4a:c5:de:bf:2e:37:45:27:e0:5f:7c:1b:
                    d5:a4:60:0f:7e:b6:4b:b9:0c:a3:1c:ca:42:60:6e:
                    88:ee:81:15:0c:ef:51:a9:0f:c5:32:62:63:4d:51:
                    0e:0a:5e:00:3c:53:3c:19:6b:75:d7:5c:3e:5d:cf:
                    36:cc:e4:d7:69:c9:c6:03:c3:3b:1d:f0:30:bc:f1:
                    63:01:7e:65:31:21:02:63:f8:81:05:28:9a:11:84:
                    9b:b1:30:ee:bb:9e:fe:e2:22:88:7f:c5:0d:cf:71:
                    61:9c:9d:e6:e5:f3:d8:66:20:f6:df:fe:a0:d2:38:
                    f3:74:52:30:75:2f:e5:b1:82:19:8f:3d:6e:e4:46:
                    21:16:95:9a:d2:d2:8a:3c:f5:1f:0d:fc:17:b8:cc:
                    5b:e8:1c:4a:79:74:03:14:a3:14:74:5f:b3:fb:dd:
                    18:eb:49:53:ea:38:2b:f4:2b:2e:f1:54:08:35:69:
                    86:ea:ac:35:82:23:3b:a9:b2:89:0f:8c:7f:68:3a:
                    ce:06:32:3f:2d:73:e2:89:36:94:27:01:75:e5:8e:
                    36:a0:3e:db:86:3b:71:d6:67:78:c6:68:1e:f4:fb:
                    11:dd:e9:50:f6:0e:1a:ea:ea:16:17:ad:56:4d:24:
                    86:51:e2:4d:28:ab:66:af:dd:f7:05:13:df:04:46:
                    5e:7c:90:0b:fa:1b:f1:1e:18:87:00:38:fc:e3:6e:
                    2e:7f:04:2f:68:d4:d8:da:ab:63:50:f1:c0:de:d0:
                    d4:0f:80:b6:a9:e3:93:18:d2:43:c3:13:91:91:d0:
                    9c:67:77:35:85:57:d0:19:c3:ca:14:d0:af:14:30:
                    c4:97:83:0c:a7:35:c9:17:d1:83:f5:b2:14:49:86:
                    87:7d:6d:e7:5d:a5:b1:3c:65:a7:33:75:52:f3:35:
                    e6:c9:b8:7f:52:92:af:8d:0e:bf:02:7f:ce:d4:dd:
                    5f:ab:2c:4f:44:41:c8:34:07:96:5d:93:8b:53:59:
                    bb:73:0a:70:6f:fc:06:2b:9e:66:88:ff:0f:45:6f:
                    96:72:27:6e:34:28:7b:f1:bd:7f:ee:43:b5:9b:80:
                    02:84:78:d2:18:b1:b5:74:46:5d:ae:fc:4a:9f:51:
                    9a:68:e8:f3:f4:21:f1:08:7e:a1:1d:8a:5b:36:1d:
                    df:1c:56:aa:6d:b1:ee:fa:f6:2b:2b:80:6e:63:a3:
                    46:62:28:05:03:8c:bf:58:16:bd:14:8a:2f:76:74:
                    67:7d:56:79:44:5e:09:fc:c8:db:4b:a4:94:b7:ac:
                    76:15:fd
                Exponent: 65537 (0x10001)
        X509v3 extensions:
            X509v3 Basic Constraints: 
                CA:FALSE
            X509v3 Subject Alternative Name: 
                DNS:localhost
            X509v3 Subject Key Identifier: 
                CD:6E:A2:0D:EE:17:39:FC:5C:40:C8:1E:94:5D:00:A5:53:50:BB:E5
    Signature Algorithm: sha1WithRSAEncryption
         12:9e:f5:91:fb:94:98:04:94:ee:6a:f9:fe:d6:53:e4:05:ec:
         9f:64:7d:ca:8e:28:49:4c:63:06:2a:32:7c:8a:0a:62:90:47:
         63:eb:bb:ce:5b:a2:a5:20:18:11:f4:aa:ad:7d:51:2d:9d:20:
         68:e3:3f:d8:b2:e8:e1:22:3e:d3:8f:d7:05:0c:36:d9:65:ee:
         6b:8b:15:9b:09:85:9c:86:83:3d:0a:21:49:1c:33:cc:60:c6:
         f8:39:fe:09:d3:be:fa:09:45:73:f9:27:f5:ee:0c:28:ee:11:
         cd:f0:6a:5f:26:2e:d7:3a:57:f9:65:4e:92:8d:e8:28:43:7a:
         5a:2c:36:2d:bc:2c:e5:ee:06:53:f9:2b:be:39:d6:ec:57:fe:
         46:5b:34:c8:40:73:19:b9:95:a4:32:44:e4:eb:20:5e:93:f7:
         48:7f:4a:41:fc:7f:92:e8:c0:c8:a3:54:08:11:04:e2:51:d2:
         ad:b7:b7:3d:48:4a:44:6f:0d:48:bd:81:8c:17:aa:90:09:6c:
         f9:cb:c6:f2:e0:8c:6c:ee:87:c3:89:b5:3d:4b:55:64:b8:fa:
         90:ba:c5:33:1e:67:73:5f:e1:e5:02:76:88:bb:6d:a0:86:4f:
         db:30:16:87:e6:5c:92:61:28:a6:43:7b:0d:f6:44:ee:7f:4c:
         16:dd:d5:95:99:e0:44:dc:36:aa:4f:b3:40:8b:a0:28:b4:c0:
         d7:82:65:42:e7:90:c9:ab:90:dd:c6:66:aa:19:72:f3:72:0c:
         ae:b2:34:79:8f:a1:d9:2e:4c:d3:35:9f:d1:66:5a:99:50:77:
         cd:84:27:1e:fb:85:e6:92:e4:55:d0:41:f2:e4:84:82:48:1f:
         fe:e9:ae:b2:b6:6d:fa:31:d3:1c:00:bc:bc:70:7c:93:16:cd:
         24:d0:0c:63:59:ae:d1:d2:c9:eb:da:1a:91:68:3f:1f:f8:29:
         3d:a0:05:fc:f6:84:4f:fb:97:c4:33:cb:c4:a3:b5:1e:98:12:
         bc:bc:6a:d1:74:c7:ad:ca:fd:7e:9c:23:71:7b:94:7b:03:93:
         11:37:e9:f0:69:b2:1b:59:b3:51:59:f2:52:2a:b8:0d:b1:3e:
         59:a0:36:fd:a4:47:fb:a0:64:55:cb:1a:00:d8:22:b8:1c:e2:
         48:fc:5c:db:bb:92:a3:cb:cc:b5:30:c0:3f:2d:76:94:0a:91:
         9d:6e:ef:f2:4e:f3:ac:d9:1d:f5:1a:df:28:5f:5a:b7:ea:3d:
         50:25:e2:fd:62:ad:e9:12:fd:83:b8:10:a5:db:4a:50:2c:31:
         65:27:54:cb:98:ef:28:9d:e2:43:7d:3c:1f:ad:ae:ed:5b:cd:
         b9:0b:a6:eb:2c:ca:a5:25
-----BEGIN CERTIFICATE-----
MIIFWjCCA0KgAwIBAgIBATANBgkqhkiG9w0BAQUFADBPMQswCQYDVQQGEwJQVDEP
MA0GA1UECAwGTGlzYm9hMQ8wDQYDVQQHDAZMaXNib2ExDjAMBgNVBAoMBVN6IENB
MQ4wDAYDVQQLDAVTeiBDQTAeFw0yMTAxMTUyMTI2MThaFw0yMjAxMTUyMTI2MTha
ME4xCzAJBgNVBAYTAlBUMQ8wDQYDVQQIDAZMaXNib2ExGjAYBgNVBAoMEU9hdHMg
SW4gVGhlIFdhdGVyMRIwEAYDVQQDDAlsb2NhbGhvc3QwggIiMA0GCSqGSIb3DQEB
AQUAA4ICDwAwggIKAoICAQD9P0+tN/7ixzk1yBV3uzF60SQtG/zc3HpDYhbkEhwu
g0rF3r8uN0Un4F98G9WkYA9+tku5DKMcykJgbojugRUM71GpD8UyYmNNUQ4KXgA8
UzwZa3XXXD5dzzbM5NdpycYDwzsd8DC88WMBfmUxIQJj+IEFKJoRhJuxMO67nv7i
Ioh/xQ3PcWGcnebl89hmIPbf/qDSOPN0UjB1L+WxghmPPW7kRiEWlZrS0oo89R8N
/Be4zFvoHEp5dAMUoxR0X7P73RjrSVPqOCv0Ky7xVAg1aYbqrDWCIzupsokPjH9o
Os4GMj8tc+KJNpQnAXXljjagPtuGO3HWZ3jGaB70+xHd6VD2Dhrq6hYXrVZNJIZR
4k0oq2av3fcFE98ERl58kAv6G/EeGIcAOPzjbi5/BC9o1Njaq2NQ8cDe0NQPgLap
45MY0kPDE5GR0JxndzWFV9AZw8oU0K8UMMSXgwynNckX0YP1shRJhod9beddpbE8
ZaczdVLzNebJuH9Skq+NDr8Cf87U3V+rLE9EQcg0B5Zdk4tTWbtzCnBv/AYrnmaI
/w9Fb5ZyJ240KHvxvX/uQ7WbgAKEeNIYsbV0Rl2u/EqfUZpo6PP0IfEIfqEdils2
Hd8cVqptse769isrgG5jo0ZiKAUDjL9YFr0Uii92dGd9VnlEXgn8yNtLpJS3rHYV
/QIDAQABo0IwQDAJBgNVHRMEAjAAMBQGA1UdEQQNMAuCCWxvY2FsaG9zdDAdBgNV
HQ4EFgQUzW6iDe4XOfxcQMgelF0ApVNQu+UwDQYJKoZIhvcNAQEFBQADggIBABKe
9ZH7lJgElO5q+f7WU+QF7J9kfcqOKElMYwYqMnyKCmKQR2Pru85boqUgGBH0qq19
US2dIGjjP9iy6OEiPtOP1wUMNtll7muLFZsJhZyGgz0KIUkcM8xgxvg5/gnTvvoJ
RXP5J/XuDCjuEc3wal8mLtc6V/llTpKN6ChDelosNi28LOXuBlP5K7451uxX/kZb
NMhAcxm5laQyROTrIF6T90h/SkH8f5LowMijVAgRBOJR0q23tz1ISkRvDUi9gYwX
qpAJbPnLxvLgjGzuh8OJtT1LVWS4+pC6xTMeZ3Nf4eUCdoi7baCGT9swFofmXJJh
KKZDew32RO5/TBbd1ZWZ4ETcNqpPs0CLoCi0wNeCZULnkMmrkN3GZqoZcvNyDK6y
NHmPodkuTNM1n9FmWplQd82EJx77heaS5FXQQfLkhIJIH/7prrK2bfox0xwAvLxw
fJMWzSTQDGNZrtHSyevaGpFoPx/4KT2gBfz2hE/7l8Qzy8SjtR6YEry8atF0x63K
/X6cI3F7lHsDkxE36fBpshtZs1FZ8lIquA2xPlmgNv2kR/ugZFXLGgDYIrgc4kj8
XNu7kqPLzLUwwD8tdpQKkZ1u7/JO86zZHfUa3yhfWrfqPVAl4v1irekS/YO4EKXb
SlAsMWUnVMuY7yid4kN9PB+tru1bzbkLpussyqUl
-----END CERTIFICATE-----
