Certificate:
    Data:
        Version: 3 (0x2)
        Serial Number: 2 (0x2)
        Signature Algorithm: sha1WithRSAEncryption
        Issuer: C=PT, ST=Lisboa, L=Lisboa, O=Sz CA, OU=Sz CA
        Validity
            Not Before: Jan 15 21:28:28 2021 GMT
            Not After : Jan 15 21:28:28 2022 GMT
        Subject: C=PT, ST=Lisboa, O=Tacohouse, CN=localhost
        Subject Public Key Info:
            Public Key Algorithm: rsaEncryption
                RSA Public-Key: (4096 bit)
                Modulus:
                    00:c4:05:e2:fd:0c:e1:1b:90:91:8d:4e:3a:7f:d8:
                    d1:c5:8e:63:ff:82:67:cd:9f:05:d2:88:aa:a1:86:
                    92:4e:f4:8a:fb:24:58:be:60:72:9a:ed:b9:9d:af:
                    3a:07:8c:c5:b1:e4:1c:20:c0:3a:21:37:e5:bd:69:
                    5c:3c:b0:b8:5f:ea:b4:58:fe:0d:dc:3b:52:a9:93:
                    c4:e4:70:95:e1:e9:61:bf:19:b8:0c:ef:7c:21:dd:
                    45:56:94:74:f1:18:ef:ce:7e:02:fe:09:41:70:50:
                    94:08:7e:72:ba:d3:a4:c6:4e:5e:96:16:5b:43:04:
                    10:fa:96:1e:8c:e1:eb:7b:20:13:e3:53:60:f6:cf:
                    11:08:8f:4e:ac:1d:83:19:8b:5c:c2:31:24:bf:cc:
                    fa:9e:ab:47:e1:27:d1:24:d0:9c:7c:dc:4f:c3:35:
                    67:c3:24:fd:ff:ee:b9:5a:a1:fd:28:a9:36:dc:d3:
                    28:3c:85:fa:3d:97:bf:46:ff:55:3b:e7:f8:7a:b2:
                    4f:90:75:01:93:63:7f:ca:c1:19:d8:87:24:e0:5e:
                    2e:50:dd:1d:e7:27:c1:9c:96:26:a1:ca:a1:f8:83:
                    96:25:bd:b0:82:17:ad:e6:89:50:8f:c8:75:43:28:
                    05:32:a4:3e:22:7a:de:90:ee:12:d9:9f:44:2a:4f:
                    f8:55:10:e0:54:ac:41:d4:e0:2c:11:c2:db:db:c8:
                    d1:ba:7a:44:7d:60:d1:53:2d:e4:2a:4f:46:59:40:
                    8c:e6:82:5f:c1:05:ee:c5:9e:81:97:dc:b0:59:4c:
                    69:7c:25:cc:af:03:87:e9:b2:6a:02:74:6c:9c:7d:
                    09:71:c5:57:5e:09:5b:b1:6a:75:bb:0b:d8:fb:e7:
                    d8:89:0b:9a:e8:e8:61:d8:1a:a4:a1:56:08:8e:bc:
                    c2:a9:74:a7:c8:23:af:e3:38:21:ed:88:16:07:fb:
                    3b:bc:b4:7b:d0:bb:69:f1:a7:e8:d5:af:7e:1e:3c:
                    8f:d8:57:cf:d1:06:4b:d4:4c:52:bc:cc:23:70:b3:
                    18:80:6d:3f:8c:9a:2f:3a:88:43:d7:1a:9c:6f:b9:
                    e4:3c:de:c5:09:44:39:f7:25:fe:b1:36:e5:75:4f:
                    67:e8:81:b5:cf:92:a5:90:4a:88:8d:6a:89:04:c7:
                    4d:0b:af:2b:ee:f8:68:8e:a9:24:ed:34:8d:34:a7:
                    24:64:31:ea:d0:b2:d4:bd:c8:21:e5:e9:d3:fa:9e:
                    67:f5:d2:43:ea:62:24:16:7c:83:ed:fe:30:57:11:
                    69:da:19:ed:82:e1:77:12:82:1b:9f:a1:9e:81:f4:
                    75:5a:05:84:19:5b:68:fc:42:61:61:c9:e2:d6:6f:
                    8d:4e:93
                Exponent: 65537 (0x10001)
        X509v3 extensions:
            X509v3 Basic Constraints: 
                CA:FALSE
            X509v3 Subject Alternative Name: 
                DNS:localhost
            X509v3 Subject Key Identifier: 
                23:E2:7F:9F:26:C0:E0:B5:2E:70:8B:66:B4:8E:58:F6:D8:F3:A0:0D
    Signature Algorithm: sha1WithRSAEncryption
         ba:6a:75:31:5c:02:17:05:e8:98:4c:d9:a4:d3:c2:3c:44:61:
         03:e6:aa:f7:f9:8d:53:fd:38:4d:1b:58:eb:42:9c:56:fb:05:
         d2:9a:49:59:fe:bb:0f:a8:73:f5:3b:81:05:c5:ec:7c:09:db:
         4b:8b:0d:3e:2f:f4:3f:8e:51:fd:b7:c8:36:f7:02:ce:7f:84:
         f1:46:a8:15:99:33:68:c9:b7:20:77:df:ee:67:94:5e:2e:31:
         ca:90:7e:33:19:13:d1:7d:cf:d5:db:5e:e7:e6:fe:f5:9f:cf:
         97:33:02:55:a2:59:29:ce:e5:d2:83:85:66:f5:92:01:80:7b:
         32:98:0e:19:11:53:b4:f6:2f:ed:d0:bc:66:cd:cb:d0:f3:4b:
         de:e6:db:f3:c8:7b:21:f1:f3:79:47:c5:0b:2e:3e:bb:5d:4e:
         60:29:26:37:74:fa:63:d4:f9:f4:7b:e1:f8:42:85:17:22:eb:
         ee:cd:e2:42:b5:f0:ce:d4:d9:06:f5:af:9d:2c:2a:48:cd:4d:
         62:a0:64:59:b9:07:23:55:c7:1b:3a:ae:cc:6f:23:b1:25:61:
         51:6d:ae:f2:2f:4a:4a:fe:8a:90:aa:67:18:93:98:fb:e5:5e:
         c6:09:ab:99:a8:e0:b3:81:be:70:0e:d1:38:f9:5a:7c:58:f6:
         49:5f:e5:2f:b1:d2:71:85:02:ea:23:1c:c4:b0:83:f4:52:83:
         4e:a6:6e:a6:86:c4:78:4d:1b:1c:b1:87:14:9a:d3:44:bd:9d:
         88:ae:53:54:80:8a:41:41:82:b7:12:78:a0:c5:0e:96:a3:1e:
         c1:56:fa:83:5a:fe:53:a3:ad:c9:b4:61:bb:b4:61:62:d9:de:
         1b:0b:25:0b:9f:50:60:70:f8:5c:62:ef:46:8a:7b:95:24:1a:
         89:d3:e2:1e:67:a8:26:8c:36:63:84:66:38:db:bf:18:74:01:
         e4:50:56:5d:b5:45:c8:ac:a6:24:8b:19:b7:9e:68:6a:49:12:
         29:8b:9c:bb:a9:96:a6:6d:2e:b0:2f:61:80:b7:cb:b1:95:af:
         89:aa:88:ba:f1:4c:66:f7:8b:4d:1b:dd:6b:a2:11:b6:bd:b2:
         b4:cf:d4:df:c7:d1:57:d2:99:55:5d:b0:19:eb:c0:5f:ea:59:
         1e:a1:eb:73:7e:a1:dd:8d:67:9d:d4:99:15:91:4a:f6:e6:6d:
         7a:1a:4f:c7:57:65:83:07:0e:8c:42:c9:61:f8:2b:cb:c5:1c:
         e4:8d:14:f1:c3:87:fa:ba:46:d7:1b:a9:27:de:f8:f7:1c:24:
         b8:ec:4b:bf:d0:bc:73:cc:54:f6:44:48:29:c0:b9:a8:7d:0c:
         1b:f2:69:cd:d9:9e:6c:6d
-----BEGIN CERTIFICATE-----
MIIFUjCCAzqgAwIBAgIBAjANBgkqhkiG9w0BAQUFADBPMQswCQYDVQQGEwJQVDEP
MA0GA1UECAwGTGlzYm9hMQ8wDQYDVQQHDAZMaXNib2ExDjAMBgNVBAoMBVN6IENB
MQ4wDAYDVQQLDAVTeiBDQTAeFw0yMTAxMTUyMTI4MjhaFw0yMjAxMTUyMTI4Mjha
MEYxCzAJBgNVBAYTAlBUMQ8wDQYDVQQIDAZMaXNib2ExEjAQBgNVBAoMCVRhY29o
b3VzZTESMBAGA1UEAwwJbG9jYWxob3N0MIICIjANBgkqhkiG9w0BAQEFAAOCAg8A
MIICCgKCAgEAxAXi/QzhG5CRjU46f9jRxY5j/4JnzZ8F0oiqoYaSTvSK+yRYvmBy
mu25na86B4zFseQcIMA6ITflvWlcPLC4X+q0WP4N3DtSqZPE5HCV4elhvxm4DO98
Id1FVpR08Rjvzn4C/glBcFCUCH5yutOkxk5elhZbQwQQ+pYejOHreyAT41Ng9s8R
CI9OrB2DGYtcwjEkv8z6nqtH4SfRJNCcfNxPwzVnwyT9/+65WqH9KKk23NMoPIX6
PZe/Rv9VO+f4erJPkHUBk2N/ysEZ2Ick4F4uUN0d5yfBnJYmocqh+IOWJb2wghet
5olQj8h1QygFMqQ+InrekO4S2Z9EKk/4VRDgVKxB1OAsEcLb28jRunpEfWDRUy3k
Kk9GWUCM5oJfwQXuxZ6Bl9ywWUxpfCXMrwOH6bJqAnRsnH0JccVXXglbsWp1uwvY
++fYiQua6Ohh2BqkoVYIjrzCqXSnyCOv4zgh7YgWB/s7vLR70Ltp8afo1a9+HjyP
2FfP0QZL1ExSvMwjcLMYgG0/jJovOohD1xqcb7nkPN7FCUQ59yX+sTbldU9n6IG1
z5KlkEqIjWqJBMdNC68r7vhojqkk7TSNNKckZDHq0LLUvcgh5enT+p5n9dJD6mIk
FnyD7f4wVxFp2hntguF3EoIbn6GegfR1WgWEGVto/EJhYcni1m+NTpMCAwEAAaNC
MEAwCQYDVR0TBAIwADAUBgNVHREEDTALgglsb2NhbGhvc3QwHQYDVR0OBBYEFCPi
f58mwOC1LnCLZrSOWPbY86ANMA0GCSqGSIb3DQEBBQUAA4ICAQC6anUxXAIXBeiY
TNmk08I8RGED5qr3+Y1T/ThNG1jrQpxW+wXSmklZ/rsPqHP1O4EFxex8CdtLiw0+
L/Q/jlH9t8g29wLOf4TxRqgVmTNoybcgd9/uZ5ReLjHKkH4zGRPRfc/V217n5v71
n8+XMwJVolkpzuXSg4Vm9ZIBgHsymA4ZEVO09i/t0LxmzcvQ80ve5tvzyHsh8fN5
R8ULLj67XU5gKSY3dPpj1Pn0e+H4QoUXIuvuzeJCtfDO1NkG9a+dLCpIzU1ioGRZ
uQcjVccbOq7MbyOxJWFRba7yL0pK/oqQqmcYk5j75V7GCauZqOCzgb5wDtE4+Vp8
WPZJX+UvsdJxhQLqIxzEsIP0UoNOpm6mhsR4TRscsYcUmtNEvZ2IrlNUgIpBQYK3
EnigxQ6Wox7BVvqDWv5To63JtGG7tGFi2d4bCyULn1BgcPhcYu9GinuVJBqJ0+Ie
Z6gmjDZjhGY4278YdAHkUFZdtUXIrKYkixm3nmhqSRIpi5y7qZambS6wL2GAt8ux
la+Jqoi68Uxm94tNG91rohG2vbK0z9Tfx9FX0plVXbAZ68Bf6lkeoetzfqHdjWed
1JkVkUr25m16Gk/HV2WDBw6MQslh+CvLxRzkjRTxw4f6ukbXG6kn3vj3HCS47Eu/
0LxzzFT2REgpwLmofQwb8mnN2Z5sbQ==
-----END CERTIFICATE-----
